; Function Attrs: mustprogress uwtable
define void @_ZN6casadi4Expm15get_sparsity_inEx(ptr dead_on_unwind noalias writable sret(%"class.casadi::Sparsity") align 8 %0, ptr noundef nonnull readonly align 8 captures(none) dereferenceable(1329) %1, i64 noundef %2) unnamed_addr #3 align 2 {
  switch i64 %2, label %8 [
    i64 0, label %4
    i64 1, label %7
  ]

4:                                                ; preds = %3
  %5 = getelementptr inbounds nuw i8, ptr %1, i64 1320
  %6 = load ptr, ptr %5, align 8, !tbaa !51
  store ptr %6, ptr %0, align 8, !tbaa !51
  tail call void @_ZN6casadi13GenericSharedINS_12SharedObjectENS_20SharedObjectInternalEE8count_upEv(ptr noundef nonnull align 8 dereferenceable(8) %0)
  br label %9

7:                                                ; preds = %3
  tail call void @_ZN6casadi8Sparsity5denseExx(ptr dead_on_unwind writable sret(%"class.casadi::Sparsity") align 8 %0, i64 noundef 1, i64 noundef 1)
  br label %9

8:                                                ; preds = %3
  tail call void @_ZN6casadi8SparsityC1Ex(ptr noundef nonnull align 8 dereferenceable(8) %0, i64 noundef 0)
  br label %9

9:                                                ; preds = %8, %7, %4
  ret void
}